target datalayout = "e-m:e-p270:32:32-p271:32:32-p272:64:64-i64:64-i128:128-f80:128-n8:16:32:64-S128"
target triple = "x86_64-pc-linux-gnu"

%class.anon = type { i32, i32, ptr }
%"class.std::function" = type { %"class.std::_Function_base", ptr }
%"class.std::_Function_base" = type { %"union.std::_Any_data", ptr }
%"union.std::_Any_data" = type { %"union.std::_Nocopy_types" }
%"union.std::_Nocopy_types" = type { { i64, i64 } }

; Function Attrs: mustprogress nounwind uwtable
define linkonce_odr dso_local noundef ptr @_ZNSt9_Any_data9_M_accessEv(ptr noundef nonnull align 8 dereferenceable(16) %0) #1 comdat align 2 {
  %2 = alloca ptr, align 8
  store ptr %0, ptr %2, align 8, !tbaa !36
  %3 = load ptr, ptr %2, align 8
  %4 = getelementptr inbounds [16 x i8], ptr %3, i64 0, i64 0
  ret ptr %4
}

; Function Attrs: mustprogress nounwind uwtable
define internal void @"_ZNSt14_Function_base13_Base_managerIZN3igl28max_faces_stopping_conditionERiiiRSt8functionIFbRKN5Eigen6MatrixIdLin1ELin1ELi0ELin1ELin1EEERKNS5_IiLin1ELin1ELi0ELin1ELin1EEESB_RKNS5_IiLin1ELi1ELi0ELin1ELi1EEESB_SB_RKSt14priority_queueISt5tupleIJdiiEESt6vectorISH_SaISH_EESt7greaterISH_EESE_S8_iiiiiEEE3$_0E9_M_createIST_EEvRSt9_Any_dataOT_St17integral_constantIbLb1EE"(ptr noundef nonnull align 8 dereferenceable(16) %0, ptr noundef nonnull align 8 dereferenceable(16) %1) #1 align 2 {
  %3 = alloca ptr, align 8
  %4 = alloca ptr, align 8
  store ptr %0, ptr %3, align 8, !tbaa !36
  store ptr %1, ptr %4, align 8, !tbaa !24
  %5 = load ptr, ptr %3, align 8, !tbaa !36
  %6 = call noundef ptr @_ZNSt9_Any_data9_M_accessEv(ptr noundef nonnull align 8 dereferenceable(16) %5) #8
  %7 = load ptr, ptr %4, align 8, !tbaa !24
  call void @llvm.memcpy.p0.p0.i64(ptr align 8 %6, ptr align 8 %7, i64 16, i1 false), !tbaa.struct !50
  ret void
}

; Function Attrs: inlinehint mustprogress nounwind uwtable
define linkonce_odr dso_local void @_ZSt4swapIPFbRKSt9_Any_dataRKN5Eigen6MatrixIdLin1ELin1ELi0ELin1ELin1EEERKNS4_IiLin1ELin1ELi0ELin1ELin1EEESA_RKNS4_IiLin1ELi1ELi0ELin1ELi1EEESA_SA_RKSt14priority_queueISt5tupleIJdiiEESt6vectorISG_SaISG_EESt7greaterISG_EESD_S7_OiSP_SP_SP_SP_EENSt9enable_ifIXsr6__and_ISt6__not_ISt15__is_tuple_likeIT_EESt21is_move_constructibleISV_ESt18is_move_assignableISV_EEE5valueEvE4typeERSV_S14_(ptr noundef nonnull align 8 dereferenceable(8) %0, ptr noundef nonnull align 8 dereferenceable(8) %1) #7 comdat {
  %3 = alloca ptr, align 8
  %4 = alloca ptr, align 8
  %5 = alloca ptr, align 8
  store ptr %0, ptr %3, align 8, !tbaa !53
  store ptr %1, ptr %4, align 8, !tbaa !53
  call void @llvm.lifetime.start.p0(i64 8, ptr %5) #8
  %6 = load ptr, ptr %3, align 8, !tbaa !53
  %7 = load ptr, ptr %6, align 8, !tbaa !24
  store ptr %7, ptr %5, align 8, !tbaa !24
  %8 = load ptr, ptr %4, align 8, !tbaa !53
  %9 = load ptr, ptr %8, align 8, !tbaa !24
  %10 = load ptr, ptr %3, align 8, !tbaa !53
  store ptr %9, ptr %10, align 8, !tbaa !24
  %11 = load ptr, ptr %5, align 8, !tbaa !24
  %12 = load ptr, ptr %4, align 8, !tbaa !53
  store ptr %11, ptr %12, align 8, !tbaa !24
  call void @llvm.lifetime.end.p0(i64 8, ptr %5) #8
  ret void
}

; Function Attrs: inlinehint mustprogress nounwind uwtable
define linkonce_odr dso_local void @_ZSt4swapIPFbRSt9_Any_dataRKS0_St18_Manager_operationEENSt9enable_ifIXsr6__and_ISt6__not_ISt15__is_tuple_likeIT_EESt21is_move_constructibleISA_ESt18is_move_assignableISA_EEE5valueEvE4typeERSA_SJ_(ptr noundef nonnull align 8 dereferenceable(8) %0, ptr noundef nonnull align 8 dereferenceable(8) %1) #7 comdat {
  %3 = alloca ptr, align 8
  %4 = alloca ptr, align 8
  %5 = alloca ptr, align 8
  store ptr %0, ptr %3, align 8, !tbaa !53
  store ptr %1, ptr %4, align 8, !tbaa !53
  call void @llvm.lifetime.start.p0(i64 8, ptr %5) #8
  %6 = load ptr, ptr %3, align 8, !tbaa !53
  %7 = load ptr, ptr %6, align 8, !tbaa !24
  store ptr %7, ptr %5, align 8, !tbaa !24
  %8 = load ptr, ptr %4, align 8, !tbaa !53
  %9 = load ptr, ptr %8, align 8, !tbaa !24
  %10 = load ptr, ptr %3, align 8, !tbaa !53
  store ptr %9, ptr %10, align 8, !tbaa !24
  %11 = load ptr, ptr %5, align 8, !tbaa !24
  %12 = load ptr, ptr %4, align 8, !tbaa !53
  store ptr %11, ptr %12, align 8, !tbaa !24
  call void @llvm.lifetime.end.p0(i64 8, ptr %5) #8
  ret void
}

; Function Attrs: inlinehint mustprogress nounwind uwtable
define linkonce_odr dso_local void @_ZSt4swapISt9_Any_dataENSt9enable_ifIXsr6__and_ISt6__not_ISt15__is_tuple_likeIT_EESt21is_move_constructibleIS4_ESt18is_move_assignableIS4_EEE5valueEvE4typeERS4_SD_(ptr noundef nonnull align 8 dereferenceable(16) %0, ptr noundef nonnull align 8 dereferenceable(16) %1) #7 comdat {
  %3 = alloca ptr, align 8
  %4 = alloca ptr, align 8
  %5 = alloca %"union.std::_Any_data", align 8
  store ptr %0, ptr %3, align 8, !tbaa !36
  store ptr %1, ptr %4, align 8, !tbaa !36
  call void @llvm.lifetime.start.p0(i64 16, ptr %5) #8
  %6 = load ptr, ptr %3, align 8, !tbaa !36
  call void @llvm.memcpy.p0.p0.i64(ptr align 8 %5, ptr align 8 %6, i64 16, i1 false), !tbaa.struct !52
  %7 = load ptr, ptr %4, align 8, !tbaa !36
  %8 = load ptr, ptr %3, align 8, !tbaa !36
  call void @llvm.memcpy.p0.p0.i64(ptr align 8 %8, ptr align 8 %7, i64 16, i1 false), !tbaa.struct !52
  %9 = load ptr, ptr %4, align 8, !tbaa !36
  call void @llvm.memcpy.p0.p0.i64(ptr align 8 %9, ptr align 8 %5, i64 16, i1 false), !tbaa.struct !52
  call void @llvm.lifetime.end.p0(i64 16, ptr %5) #8
  ret void
}

; Function Attrs: mustprogress nounwind uwtable
define internal void @"_ZNSt14_Function_base13_Base_managerIZN3igl28max_faces_stopping_conditionERiiiRSt8functionIFbRKN5Eigen6MatrixIdLin1ELin1ELi0ELin1ELin1EEERKNS5_IiLin1ELin1ELi0ELin1ELin1EEESB_RKNS5_IiLin1ELi1ELi0ELin1ELi1EEESB_SB_RKSt14priority_queueISt5tupleIJdiiEESt6vectorISH_SaISH_EESt7greaterISH_EESE_S8_iiiiiEEE3$_0E15_M_init_functorIST_EEvRSt9_Any_dataOT_"(ptr noundef nonnull align 8 dereferenceable(16) %0, ptr noundef nonnull align 8 dereferenceable(16) %1) #1 align 2 personality ptr @__gxx_personality_v0 {
  %3 = alloca ptr, align 8
  %4 = alloca ptr, align 8
  store ptr %0, ptr %3, align 8, !tbaa !36
  store ptr %1, ptr %4, align 8, !tbaa !24
  %5 = load ptr, ptr %3, align 8, !tbaa !36
  %6 = load ptr, ptr %4, align 8, !tbaa !24
  invoke void @"_ZNSt14_Function_base13_Base_managerIZN3igl28max_faces_stopping_conditionERiiiRSt8functionIFbRKN5Eigen6MatrixIdLin1ELin1ELi0ELin1ELin1EEERKNS5_IiLin1ELin1ELi0ELin1ELin1EEESB_RKNS5_IiLin1ELi1ELi0ELin1ELi1EEESB_SB_RKSt14priority_queueISt5tupleIJdiiEESt6vectorISH_SaISH_EESt7greaterISH_EESE_S8_iiiiiEEE3$_0E9_M_createIST_EEvRSt9_Any_dataOT_St17integral_constantIbLb1EE"(ptr noundef nonnull align 8 dereferenceable(16) %5, ptr noundef nonnull align 8 dereferenceable(16) %6)
          to label %7 unwind label %8

7:                                                ; preds = %2
  ret void

8:                                                ; preds = %2
  %9 = landingpad { ptr, i32 }
          catch ptr null
  %10 = extractvalue { ptr, i32 } %9, 0
  call void @__clang_call_terminate(ptr %10) #9
  unreachable
}

; Function Attrs: mustprogress nounwind uwtable
define internal noundef zeroext i1 @"_ZNSt14_Function_base13_Base_managerIZN3igl28max_faces_stopping_conditionERiiiRSt8functionIFbRKN5Eigen6MatrixIdLin1ELin1ELi0ELin1ELin1EEERKNS5_IiLin1ELin1ELi0ELin1ELin1EEESB_RKNS5_IiLin1ELi1ELi0ELin1ELi1EEESB_SB_RKSt14priority_queueISt5tupleIJdiiEESt6vectorISH_SaISH_EESt7greaterISH_EESE_S8_iiiiiEEE3$_0E21_M_not_empty_functionIST_EEbRKT_"(ptr noundef nonnull align 8 dereferenceable(16) %0) #1 align 2 {
  %2 = alloca ptr, align 8
  store ptr %0, ptr %2, align 8, !tbaa !24
  ret i1 true
}

; Function Attrs: mustprogress nounwind uwtable
define linkonce_odr dso_local void @_ZNSt8functionIFbRKN5Eigen6MatrixIdLin1ELin1ELi0ELin1ELin1EEERKNS1_IiLin1ELin1ELi0ELin1ELin1EEES7_RKNS1_IiLin1ELi1ELi0ELin1ELi1EEES7_S7_RKSt14priority_queueISt5tupleIJdiiEESt6vectorISD_SaISD_EESt7greaterISD_EESA_S4_iiiiiEE4swapERSN_(ptr noundef nonnull align 8 dereferenceable(32) %0, ptr noundef nonnull align 8 dereferenceable(32) %1) #1 comdat align 2 {
  %3 = alloca ptr, align 8
  %4 = alloca ptr, align 8
  store ptr %0, ptr %3, align 8, !tbaa !19
  store ptr %1, ptr %4, align 8, !tbaa !19
  %5 = load ptr, ptr %3, align 8
  %6 = getelementptr inbounds nuw %"class.std::_Function_base", ptr %5, i32 0, i32 0
  %7 = load ptr, ptr %4, align 8, !tbaa !19
  %8 = getelementptr inbounds nuw %"class.std::_Function_base", ptr %7, i32 0, i32 0
  call void @_ZSt4swapISt9_Any_dataENSt9enable_ifIXsr6__and_ISt6__not_ISt15__is_tuple_likeIT_EESt21is_move_constructibleIS4_ESt18is_move_assignableIS4_EEE5valueEvE4typeERS4_SD_(ptr noundef nonnull align 8 dereferenceable(16) %6, ptr noundef nonnull align 8 dereferenceable(16) %8) #8
  %9 = getelementptr inbounds nuw %"class.std::_Function_base", ptr %5, i32 0, i32 1
  %10 = load ptr, ptr %4, align 8, !tbaa !19
  %11 = getelementptr inbounds nuw %"class.std::_Function_base", ptr %10, i32 0, i32 1
  call void @_ZSt4swapIPFbRSt9_Any_dataRKS0_St18_Manager_operationEENSt9enable_ifIXsr6__and_ISt6__not_ISt15__is_tuple_likeIT_EESt21is_move_constructibleISA_ESt18is_move_assignableISA_EEE5valueEvE4typeERSA_SJ_(ptr noundef nonnull align 8 dereferenceable(8) %9, ptr noundef nonnull align 8 dereferenceable(8) %11) #8
  %12 = getelementptr inbounds nuw %"class.std::function", ptr %5, i32 0, i32 1
  %13 = load ptr, ptr %4, align 8, !tbaa !19
  %14 = getelementptr inbounds nuw %"class.std::function", ptr %13, i32 0, i32 1
  call void @_ZSt4swapIPFbRKSt9_Any_dataRKN5Eigen6MatrixIdLin1ELin1ELi0ELin1ELin1EEERKNS4_IiLin1ELin1ELi0ELin1ELin1EEESA_RKNS4_IiLin1ELi1ELi0ELin1ELi1EEESA_SA_RKSt14priority_queueISt5tupleIJdiiEESt6vectorISG_SaISG_EESt7greaterISG_EESD_S7_OiSP_SP_SP_SP_EENSt9enable_ifIXsr6__and_ISt6__not_ISt15__is_tuple_likeIT_EESt21is_move_constructibleISV_ESt18is_move_assignableISV_EEE5valueEvE4typeERSV_S14_(ptr noundef nonnull align 8 dereferenceable(8) %12, ptr noundef nonnull align 8 dereferenceable(8) %14) #8
  ret void
}

; Function Attrs: mustprogress nounwind uwtable
define internal void @"_ZNSt8functionIFbRKN5Eigen6MatrixIdLin1ELin1ELi0ELin1ELin1EEERKNS1_IiLin1ELin1ELi0ELin1ELin1EEES7_RKNS1_IiLin1ELi1ELi0ELin1ELi1EEES7_S7_RKSt14priority_queueISt5tupleIJdiiEESt6vectorISD_SaISD_EESt7greaterISD_EESA_S4_iiiiiEEC2IZN3igl28max_faces_stopping_conditionERiiiRSN_E3$_0vEEOT_"(ptr noundef nonnull align 8 dereferenceable(32) %0, ptr noundef nonnull align 8 dereferenceable(16) %1) unnamed_addr #1 align 2 {
  %3 = alloca ptr, align 8
  %4 = alloca ptr, align 8
  store ptr %0, ptr %3, align 8, !tbaa !19
  store ptr %1, ptr %4, align 8, !tbaa !24
  %5 = load ptr, ptr %3, align 8
  %6 = getelementptr inbounds i8, ptr %5, i64 0
  call void @llvm.memset.p0.i64(ptr align 8 %6, i8 0, i64 24, i1 false)
  call void @_ZNSt14_Function_baseC2Ev(ptr noundef nonnull align 8 dereferenceable(24) %5) #8
  %7 = getelementptr inbounds nuw %"class.std::function", ptr %5, i32 0, i32 1
  store ptr null, ptr %7, align 8, !tbaa !25
  %8 = load ptr, ptr %4, align 8, !tbaa !24
  %9 = call noundef zeroext i1 @"_ZNSt14_Function_base13_Base_managerIZN3igl28max_faces_stopping_conditionERiiiRSt8functionIFbRKN5Eigen6MatrixIdLin1ELin1ELi0ELin1ELin1EEERKNS5_IiLin1ELin1ELi0ELin1ELin1EEESB_RKNS5_IiLin1ELi1ELi0ELin1ELi1EEESB_SB_RKSt14priority_queueISt5tupleIJdiiEESt6vectorISH_SaISH_EESt7greaterISH_EESE_S8_iiiiiEEE3$_0E21_M_not_empty_functionIST_EEbRKT_"(ptr noundef nonnull align 8 dereferenceable(16) %8) #8
  br i1 %9, label %10, label %15

10:                                               ; preds = %2
  %11 = getelementptr inbounds nuw %"class.std::_Function_base", ptr %5, i32 0, i32 0
  %12 = load ptr, ptr %4, align 8, !tbaa !24
  call void @"_ZNSt14_Function_base13_Base_managerIZN3igl28max_faces_stopping_conditionERiiiRSt8functionIFbRKN5Eigen6MatrixIdLin1ELin1ELi0ELin1ELin1EEERKNS5_IiLin1ELin1ELi0ELin1ELin1EEESB_RKNS5_IiLin1ELi1ELi0ELin1ELi1EEESB_SB_RKSt14priority_queueISt5tupleIJdiiEESt6vectorISH_SaISH_EESt7greaterISH_EESE_S8_iiiiiEEE3$_0E15_M_init_functorIST_EEvRSt9_Any_dataOT_"(ptr noundef nonnull align 8 dereferenceable(16) %11, ptr noundef nonnull align 8 dereferenceable(16) %12) #8
  %13 = getelementptr inbounds nuw %"class.std::function", ptr %5, i32 0, i32 1
  store ptr @"_ZNSt17_Function_handlerIFbRKN5Eigen6MatrixIdLin1ELin1ELi0ELin1ELin1EEERKNS1_IiLin1ELin1ELi0ELin1ELin1EEES7_RKNS1_IiLin1ELi1ELi0ELin1ELi1EEES7_S7_RKSt14priority_queueISt5tupleIJdiiEESt6vectorISD_SaISD_EESt7greaterISD_EESA_S4_iiiiiEZN3igl28max_faces_stopping_conditionERiiiRSt8functionISM_EE3$_0E9_M_invokeERKSt9_Any_dataS4_S7_S7_SA_S7_S7_SL_SA_S4_OiSX_SX_SX_SX_", ptr %13, align 8, !tbaa !25
  %14 = getelementptr inbounds nuw %"class.std::_Function_base", ptr %5, i32 0, i32 1
  store ptr @"_ZNSt17_Function_handlerIFbRKN5Eigen6MatrixIdLin1ELin1ELi0ELin1ELin1EEERKNS1_IiLin1ELin1ELi0ELin1ELin1EEES7_RKNS1_IiLin1ELi1ELi0ELin1ELi1EEES7_S7_RKSt14priority_queueISt5tupleIJdiiEESt6vectorISD_SaISD_EESt7greaterISD_EESA_S4_iiiiiEZN3igl28max_faces_stopping_conditionERiiiRSt8functionISM_EE3$_0E10_M_managerERSt9_Any_dataRKSU_St18_Manager_operation", ptr %14, align 8, !tbaa !30
  br label %15

15:                                               ; preds = %10, %2
  ret void
}

; Function Attrs: noinline noreturn nounwind uwtable
define linkonce_odr hidden void @__clang_call_terminate(ptr noundef %0) #4 comdat {
  %2 = call ptr @__cxa_begin_catch(ptr %0) #8
  call void @_ZSt9terminatev() #9
  unreachable
}

; Function Attrs: mustprogress nounwind uwtable
define internal noundef nonnull align 8 dereferenceable(32) ptr @"_ZNSt8functionIFbRKN5Eigen6MatrixIdLin1ELin1ELi0ELin1ELin1EEERKNS1_IiLin1ELin1ELi0ELin1ELin1EEES7_RKNS1_IiLin1ELi1ELi0ELin1ELi1EEES7_S7_RKSt14priority_queueISt5tupleIJdiiEESt6vectorISD_SaISD_EESt7greaterISD_EESA_S4_iiiiiEEaSIZN3igl28max_faces_stopping_conditionERiiiRSN_E3$_0EENSt9enable_ifIXsr9_CallableIT_EE5valueESR_E4typeEOSU_"(ptr noundef nonnull align 8 dereferenceable(32) %0, ptr noundef nonnull align 8 dereferenceable(16) %1) #1 align 2 {
  %3 = alloca ptr, align 8
  %4 = alloca ptr, align 8
  %5 = alloca %"class.std::function", align 8
  store ptr %0, ptr %3, align 8, !tbaa !19
  store ptr %1, ptr %4, align 8, !tbaa !24
  %6 = load ptr, ptr %3, align 8
  call void @llvm.lifetime.start.p0(i64 32, ptr %5) #8
  %7 = load ptr, ptr %4, align 8, !tbaa !24
  call void @"_ZNSt8functionIFbRKN5Eigen6MatrixIdLin1ELin1ELi0ELin1ELin1EEERKNS1_IiLin1ELin1ELi0ELin1ELin1EEES7_RKNS1_IiLin1ELi1ELi0ELin1ELi1EEES7_S7_RKSt14priority_queueISt5tupleIJdiiEESt6vectorISD_SaISD_EESt7greaterISD_EESA_S4_iiiiiEEC2IZN3igl28max_faces_stopping_conditionERiiiRSN_E3$_0vEEOT_"(ptr noundef nonnull align 8 dereferenceable(32) %5, ptr noundef nonnull align 8 dereferenceable(16) %7) #8
  call void @_ZNSt8functionIFbRKN5Eigen6MatrixIdLin1ELin1ELi0ELin1ELin1EEERKNS1_IiLin1ELin1ELi0ELin1ELin1EEES7_RKNS1_IiLin1ELi1ELi0ELin1ELi1EEES7_S7_RKSt14priority_queueISt5tupleIJdiiEESt6vectorISD_SaISD_EESt7greaterISD_EESA_S4_iiiiiEE4swapERSN_(ptr noundef nonnull align 8 dereferenceable(32) %5, ptr noundef nonnull align 8 dereferenceable(32) %6) #8
  call void @_ZNSt14_Function_baseD2Ev(ptr noundef nonnull align 8 dereferenceable(32) %5) #8
  call void @llvm.lifetime.end.p0(i64 32, ptr %5) #8
  ret ptr %6
}

; Function Attrs: mustprogress nounwind uwtable
define linkonce_odr dso_local void @_ZNSt14_Function_baseC2Ev(ptr noundef nonnull align 8 dereferenceable(24) %0) unnamed_addr #1 comdat align 2 {
  %2 = alloca ptr, align 8
  store ptr %0, ptr %2, align 8, !tbaa !28
  %3 = load ptr, ptr %2, align 8
  %4 = getelementptr inbounds nuw %"class.std::_Function_base", ptr %3, i32 0, i32 0
  store ptr null, ptr %4, align 8, !tbaa !35
  %5 = getelementptr inbounds nuw %"class.std::_Function_base", ptr %3, i32 0, i32 1
  store ptr null, ptr %5, align 8, !tbaa !30
  ret void
}

; Function Attrs: mustprogress nounwind uwtable
define linkonce_odr dso_local void @_ZNSt14_Function_baseD2Ev(ptr noundef nonnull align 8 dereferenceable(24) %0) unnamed_addr #1 comdat align 2 personality ptr @__gxx_personality_v0 {
  %2 = alloca ptr, align 8
  store ptr %0, ptr %2, align 8, !tbaa !28
  %3 = load ptr, ptr %2, align 8
  %4 = getelementptr inbounds nuw %"class.std::_Function_base", ptr %3, i32 0, i32 1
  %5 = load ptr, ptr %4, align 8, !tbaa !30
  %6 = icmp ne ptr %5, null
  br i1 %6, label %7, label %14

7:                                                ; preds = %1
  %8 = getelementptr inbounds nuw %"class.std::_Function_base", ptr %3, i32 0, i32 1
  %9 = load ptr, ptr %8, align 8, !tbaa !30
  %10 = getelementptr inbounds nuw %"class.std::_Function_base", ptr %3, i32 0, i32 0
  %11 = getelementptr inbounds nuw %"class.std::_Function_base", ptr %3, i32 0, i32 0
  %12 = invoke noundef zeroext i1 %9(ptr noundef nonnull align 8 dereferenceable(16) %10, ptr noundef nonnull align 8 dereferenceable(16) %11, i32 noundef 3)
          to label %13 unwind label %15

13:                                               ; preds = %7
  br label %14

14:                                               ; preds = %13, %1
  ret void

15:                                               ; preds = %7
  %16 = landingpad { ptr, i32 }
          catch ptr null
  %17 = extractvalue { ptr, i32 } %16, 0
  call void @__clang_call_terminate(ptr %17) #9
  unreachable
}

; Function Attrs: mustprogress nounwind uwtable
define dso_local void @_ZN3igl28max_faces_stopping_conditionERiiiRSt8functionIFbRKN5Eigen6MatrixIdLin1ELin1ELi0ELin1ELin1EEERKNS3_IiLin1ELin1ELi0ELin1ELin1EEES9_RKNS3_IiLin1ELi1ELi0ELin1ELi1EEES9_S9_RKSt14priority_queueISt5tupleIJdiiEESt6vectorISF_SaISF_EESt7greaterISF_EESC_S6_iiiiiEE(ptr noundef nonnull align 4 dereferenceable(4) %0, i32 noundef %1, i32 noundef %2, ptr noundef nonnull align 8 dereferenceable(32) %3) #1 {
  %5 = alloca ptr, align 8
  %6 = alloca i32, align 4
  %7 = alloca i32, align 4
  %8 = alloca ptr, align 8
  %9 = alloca %class.anon, align 8
  store ptr %0, ptr %5, align 8, !tbaa !15
  store i32 %1, ptr %6, align 4, !tbaa !17
  store i32 %2, ptr %7, align 4, !tbaa !17
  store ptr %3, ptr %8, align 8, !tbaa !19
  call void @llvm.lifetime.start.p0(i64 16, ptr %9) #8
  %10 = getelementptr inbounds nuw %class.anon, ptr %9, i32 0, i32 0
  %11 = load i32, ptr %6, align 4, !tbaa !17
  store i32 %11, ptr %10, align 8, !tbaa !21
  %12 = getelementptr inbounds nuw %class.anon, ptr %9, i32 0, i32 1
  %13 = load i32, ptr %7, align 4, !tbaa !17
  store i32 %13, ptr %12, align 4, !tbaa !23
  %14 = getelementptr inbounds nuw %class.anon, ptr %9, i32 0, i32 2
  %15 = load ptr, ptr %5, align 8, !tbaa !15
  store ptr %15, ptr %14, align 8, !tbaa !15
  %16 = load ptr, ptr %8, align 8, !tbaa !19
  %17 = call noundef nonnull align 8 dereferenceable(32) ptr @"_ZNSt8functionIFbRKN5Eigen6MatrixIdLin1ELin1ELi0ELin1ELin1EEERKNS1_IiLin1ELin1ELi0ELin1ELin1EEES7_RKNS1_IiLin1ELi1ELi0ELin1ELi1EEES7_S7_RKSt14priority_queueISt5tupleIJdiiEESt6vectorISD_SaISD_EESt7greaterISD_EESA_S4_iiiiiEEaSIZN3igl28max_faces_stopping_conditionERiiiRSN_E3$_0EENSt9enable_ifIXsr9_CallableIT_EE5valueESR_E4typeEOSU_"(ptr noundef nonnull align 8 dereferenceable(32) %16, ptr noundef nonnull align 8 dereferenceable(16) %9) #8
  call void @llvm.lifetime.end.p0(i64 16, ptr %9) #8
  ret void
}

; Function Attrs: mustprogress nounwind uwtable
define linkonce_odr dso_local void @_ZNSt8functionIFbRKN5Eigen6MatrixIdLin1ELin1ELi0ELin1ELin1EEERKNS1_IiLin1ELin1ELi0ELin1ELin1EEES7_RKNS1_IiLin1ELi1ELi0ELin1ELi1EEES7_S7_RKSt14priority_queueISt5tupleIJdiiEESt6vectorISD_SaISD_EESt7greaterISD_EESA_S4_iiiiiEEC2Ev(ptr noundef nonnull align 8 dereferenceable(32) %0) unnamed_addr #1 comdat align 2 {
  %2 = alloca ptr, align 8
  store ptr %0, ptr %2, align 8, !tbaa !19
  %3 = load ptr, ptr %2, align 8
  %4 = getelementptr inbounds i8, ptr %3, i64 0
  call void @llvm.memset.p0.i64(ptr align 8 %4, i8 0, i64 24, i1 false)
  call void @_ZNSt14_Function_baseC2Ev(ptr noundef nonnull align 8 dereferenceable(24) %3) #8
  %5 = getelementptr inbounds nuw %"class.std::function", ptr %3, i32 0, i32 1
  store ptr null, ptr %5, align 8, !tbaa !25
  ret void
}

; Function Attrs: mustprogress nounwind uwtable
define dso_local void @_ZN3igl28max_faces_stopping_conditionERiii(ptr dead_on_unwind noalias writable sret(%"class.std::function") align 8 %0, ptr noundef nonnull align 4 dereferenceable(4) %1, i32 noundef %2, i32 noundef %3) #1 {
  %5 = alloca ptr, align 8
  %6 = alloca ptr, align 8
  %7 = alloca i32, align 4
  %8 = alloca i32, align 4
  %9 = alloca i1, align 1
  store ptr %0, ptr %5, align 8
  store ptr %1, ptr %6, align 8, !tbaa !15
  store i32 %2, ptr %7, align 4, !tbaa !17
  store i32 %3, ptr %8, align 4, !tbaa !17
  store i1 false, ptr %9, align 1
  call void @_ZNSt8functionIFbRKN5Eigen6MatrixIdLin1ELin1ELi0ELin1ELin1EEERKNS1_IiLin1ELin1ELi0ELin1ELin1EEES7_RKNS1_IiLin1ELi1ELi0ELin1ELi1EEES7_S7_RKSt14priority_queueISt5tupleIJdiiEESt6vectorISD_SaISD_EESt7greaterISD_EESA_S4_iiiiiEEC2Ev(ptr noundef nonnull align 8 dereferenceable(32) %0) #8
  %10 = load ptr, ptr %6, align 8, !tbaa !15
  %11 = load i32, ptr %7, align 4, !tbaa !17
  %12 = load i32, ptr %8, align 4, !tbaa !17
  call void @_ZN3igl28max_faces_stopping_conditionERiiiRSt8functionIFbRKN5Eigen6MatrixIdLin1ELin1ELi0ELin1ELin1EEERKNS3_IiLin1ELin1ELi0ELin1ELin1EEES9_RKNS3_IiLin1ELi1ELi0ELin1ELi1EEES9_S9_RKSt14priority_queueISt5tupleIJdiiEESt6vectorISF_SaISF_EESt7greaterISF_EESC_S6_iiiiiEE(ptr noundef nonnull align 4 dereferenceable(4) %10, i32 noundef %11, i32 noundef %12, ptr noundef nonnull align 8 dereferenceable(32) %0)
  store i1 true, ptr %9, align 1
  %13 = load i1, ptr %9, align 1
  br i1 %13, label %15, label %14

14:                                               ; preds = %4
  call void @_ZNSt14_Function_baseD2Ev(ptr noundef nonnull align 8 dereferenceable(32) %0) #8
  br label %15

15:                                               ; preds = %14, %4
  ret void
}