; Function Attrs: mustprogress nofree norecurse nosync nounwind willreturn memory(argmem: write) uwtable
define dso_local void @_ZN3igl28max_faces_stopping_conditionERiii(ptr dead_on_unwind noalias writable writeonly sret(%"class.std::function") align 8 captures(none) initializes((0, 32)) %0, ptr noundef nonnull align 4 dereferenceable(4) %1, i32 noundef %2, i32 noundef %3) local_unnamed_addr #2 personality ptr @__gxx_personality_v0 {
_ZN3igl28max_faces_stopping_conditionERiiiRSt8functionIFbRKN5Eigen6MatrixIdLin1ELin1ELi0ELin1ELin1EEERKNS3_IiLin1ELin1ELi0ELin1ELin1EEES9_RKNS3_IiLin1ELi1ELi0ELin1ELi1EEES9_S9_RKSt14priority_queueISt5tupleIJdiiEESt6vectorISF_SaISF_EESt7greaterISF_EESC_S6_iiiiiEE.exit:
  store i32 %2, ptr %0, align 8
  %.sroa.4.0..sroa_idx.i = getelementptr inbounds nuw i8, ptr %0, i64 4
  store i32 %3, ptr %.sroa.4.0..sroa_idx.i, align 4
  %.sroa.5.0..sroa_idx.i = getelementptr inbounds nuw i8, ptr %0, i64 8
  store ptr %1, ptr %.sroa.5.0..sroa_idx.i, align 8
  %4 = getelementptr inbounds nuw i8, ptr %0, i64 16
  store ptr @"_ZNSt17_Function_handlerIFbRKN5Eigen6MatrixIdLin1ELin1ELi0ELin1ELin1EEERKNS1_IiLin1ELin1ELi0ELin1ELin1EEES7_RKNS1_IiLin1ELi1ELi0ELin1ELi1EEES7_S7_RKSt14priority_queueISt5tupleIJdiiEESt6vectorISD_SaISD_EESt7greaterISD_EESA_S4_iiiiiEZN3igl28max_faces_stopping_conditionERiiiRSt8functionISM_EE3$_0E10_M_managerERSt9_Any_dataRKSU_St18_Manager_operation", ptr %4, align 8, !tbaa !8
  %5 = getelementptr inbounds nuw i8, ptr %0, i64 24
  store ptr @"_ZNSt17_Function_handlerIFbRKN5Eigen6MatrixIdLin1ELin1ELi0ELin1ELin1EEERKNS1_IiLin1ELin1ELi0ELin1ELin1EEES7_RKNS1_IiLin1ELi1ELi0ELin1ELi1EEES7_S7_RKSt14priority_queueISt5tupleIJdiiEESt6vectorISD_SaISD_EESt7greaterISD_EESA_S4_iiiiiEZN3igl28max_faces_stopping_conditionERiiiRSt8functionISM_EE3$_0E9_M_invokeERKSt9_Any_dataS4_S7_S7_SA_S7_S7_SL_SA_S4_OiSX_SX_SX_SX_", ptr %5, align 8, !tbaa !8
  ret void
}